; Function Attrs: mustprogress nounwind uwtable
define dso_local noundef zeroext i1 @_ZNK4llvm10ScopedNameneERKS0_(ptr noundef nonnull align 8 dereferenceable(40) %0, ptr noundef nonnull align 8 dereferenceable(40) %1) local_unnamed_addr #0 align 2 {
  %3 = load i32, ptr %0, align 8
  %4 = load i32, ptr %1, align 8
  %5 = icmp eq i32 %3, %4
  br i1 %5, label %6, label %_ZNK4llvm10ScopedNameeqERKS0_.exit

6:                                                ; preds = %2
  %7 = getelementptr inbounds nuw i8, ptr %0, i64 8
  %8 = getelementptr inbounds nuw i8, ptr %1, i64 8
  %9 = tail call noundef i64 @_ZNKSt7__cxx1112basic_stringIcSt11char_traitsIcESaIcEE4sizeEv(ptr noundef nonnull align 8 dereferenceable(32) %7) #29
  %10 = tail call noundef i64 @_ZNKSt7__cxx1112basic_stringIcSt11char_traitsIcESaIcEE4sizeEv(ptr noundef nonnull align 8 dereferenceable(32) %8) #29
  %11 = icmp eq i64 %9, %10
  br i1 %11, label %12, label %_ZNK4llvm10ScopedNameeqERKS0_.exit

12:                                               ; preds = %6
  %13 = tail call noundef ptr @_ZNKSt7__cxx1112basic_stringIcSt11char_traitsIcESaIcEE4dataEv(ptr noundef nonnull align 8 dereferenceable(32) %7) #29
  %14 = tail call noundef ptr @_ZNKSt7__cxx1112basic_stringIcSt11char_traitsIcESaIcEE4dataEv(ptr noundef nonnull align 8 dereferenceable(32) %8) #29
  %15 = tail call noundef i64 @_ZNKSt7__cxx1112basic_stringIcSt11char_traitsIcESaIcEE4sizeEv(ptr noundef nonnull align 8 dereferenceable(32) %7) #29
  %16 = icmp eq i64 %15, 0
  br i1 %16, label %_ZNK4llvm10ScopedNameeqERKS0_.exit, label %17

17:                                               ; preds = %12
  %bcmp.i.i = tail call i32 @bcmp(ptr %13, ptr %14, i64 %15)
  %18 = icmp ne i32 %bcmp.i.i, 0
  br label %_ZNK4llvm10ScopedNameeqERKS0_.exit

_ZNK4llvm10ScopedNameeqERKS0_.exit:               ; preds = %2, %6, %12, %17
  %19 = phi i1 [ true, %2 ], [ true, %6 ], [ %18, %17 ], [ false, %12 ]
  ret i1 %19
}